target datalayout = "e-m:e-p270:32:32-p271:32:32-p272:64:64-i64:64-i128:128-f80:128-n8:16:32:64-S128"
target triple = "x86_64-pc-linux-gnu"

%struct.evp_rand_ctx_st = type { ptr, ptr, ptr, %struct.CRYPTO_REF_COUNT, ptr }
%struct.CRYPTO_REF_COUNT = type { i32 }
%struct.evp_rand_st = type { ptr, i32, ptr, ptr, %struct.CRYPTO_REF_COUNT, ptr, ptr, ptr, ptr, ptr, ptr, ptr, ptr, ptr, ptr, ptr, ptr, ptr, ptr, ptr, ptr, ptr, ptr, ptr, ptr }

@.str = private unnamed_addr constant [33 x i8] c"../openssl/crypto/evp/evp_rand.c\00", align 1
@__func__.EVP_RAND_CTX_new = private unnamed_addr constant [17 x i8] c"EVP_RAND_CTX_new\00", align 1

; Function Attrs: nounwind uwtable
define internal i32 @evp_rand_up_ref(ptr noundef %0) #0 {
  %2 = alloca i32, align 4
  %3 = alloca ptr, align 8
  %4 = alloca ptr, align 8
  %5 = alloca i32, align 4
  %6 = alloca i32, align 4
  store ptr %0, ptr %3, align 8, !tbaa !58
  call void @llvm.lifetime.start.p0(i64 8, ptr %4) #6
  %7 = load ptr, ptr %3, align 8, !tbaa !58
  store ptr %7, ptr %4, align 8, !tbaa !29
  call void @llvm.lifetime.start.p0(i64 4, ptr %5) #6
  store i32 0, ptr %5, align 4, !tbaa !22
  %8 = load ptr, ptr %4, align 8, !tbaa !29
  %9 = icmp ne ptr %8, null
  br i1 %9, label %10, label %14

10:                                               ; preds = %1
  %11 = load ptr, ptr %4, align 8, !tbaa !29
  %12 = getelementptr inbounds nuw %struct.evp_rand_st, ptr %11, i32 0, i32 4
  %13 = call i32 @CRYPTO_UP_REF(ptr noundef %12, ptr noundef %5)
  store i32 %13, ptr %2, align 4
  store i32 1, ptr %6, align 4
  br label %15

14:                                               ; preds = %1
  store i32 1, ptr %2, align 4
  store i32 1, ptr %6, align 4
  br label %15

15:                                               ; preds = %14, %10
  call void @llvm.lifetime.end.p0(i64 4, ptr %5) #6
  call void @llvm.lifetime.end.p0(i64 8, ptr %4) #6
  %16 = load i32, ptr %2, align 4
  ret i32 %16
}

; Function Attrs: inlinehint nounwind uwtable
define internal i32 @CRYPTO_UP_REF(ptr noundef %0, ptr noundef %1) #3 {
  %3 = alloca ptr, align 8
  %4 = alloca ptr, align 8
  %5 = alloca i32, align 4
  %6 = alloca i32, align 4
  store ptr %0, ptr %3, align 8, !tbaa !58
  store ptr %1, ptr %4, align 8, !tbaa !61
  %7 = load ptr, ptr %3, align 8, !tbaa !58
  %8 = getelementptr inbounds nuw %struct.CRYPTO_REF_COUNT, ptr %7, i32 0, i32 0
  store i32 1, ptr %5, align 4, !tbaa !22
  %9 = load i32, ptr %5, align 4
  %10 = atomicrmw add ptr %8, i32 %9 monotonic, align 4
  store i32 %10, ptr %6, align 4
  %11 = load i32, ptr %6, align 4, !tbaa !22
  %12 = add nsw i32 %11, 1
  %13 = load ptr, ptr %4, align 8, !tbaa !61
  store i32 %12, ptr %13, align 4, !tbaa !22
  ret i32 1
}

; Function Attrs: nounwind uwtable
define i32 @EVP_RAND_up_ref(ptr noundef %0) #0 {
  %2 = alloca ptr, align 8
  store ptr %0, ptr %2, align 8, !tbaa !29
  %3 = load ptr, ptr %2, align 8, !tbaa !29
  %4 = call i32 @evp_rand_up_ref(ptr noundef %3)
  ret i32 %4
}

; Function Attrs: inlinehint nounwind uwtable
define internal void @CRYPTO_FREE_REF(ptr noundef %0) #3 {
  %2 = alloca ptr, align 8
  store ptr %0, ptr %2, align 8, !tbaa !58
  ret void
}

; Function Attrs: nounwind uwtable
define i32 @EVP_RAND_CTX_up_ref(ptr noundef %0) #0 {
  %2 = alloca ptr, align 8
  %3 = alloca i32, align 4
  store ptr %0, ptr %2, align 8, !tbaa !3
  call void @llvm.lifetime.start.p0(i64 4, ptr %3) #6
  store i32 0, ptr %3, align 4, !tbaa !22
  %4 = load ptr, ptr %2, align 8, !tbaa !3
  %5 = getelementptr inbounds nuw %struct.evp_rand_ctx_st, ptr %4, i32 0, i32 3
  %6 = call i32 @CRYPTO_UP_REF(ptr noundef %5, ptr noundef %3)
  call void @llvm.lifetime.end.p0(i64 4, ptr %3) #6
  ret i32 %6
}

; Function Attrs: inlinehint nounwind uwtable
define internal i32 @CRYPTO_NEW_REF(ptr noundef %0, i32 noundef %1) #3 {
  %3 = alloca ptr, align 8
  %4 = alloca i32, align 4
  store ptr %0, ptr %3, align 8, !tbaa !58
  store i32 %1, ptr %4, align 4, !tbaa !22
  %5 = load i32, ptr %4, align 4, !tbaa !22
  %6 = load ptr, ptr %3, align 8, !tbaa !58
  %7 = getelementptr inbounds nuw %struct.CRYPTO_REF_COUNT, ptr %6, i32 0, i32 0
  store atomic i32 %5, ptr %7 seq_cst, align 4, !tbaa !64
  ret i32 1
}

; Function Attrs: nounwind uwtable
define ptr @EVP_RAND_CTX_new(ptr noundef %0, ptr noundef %1) #0 {
  %3 = alloca ptr, align 8
  %4 = alloca ptr, align 8
  %5 = alloca ptr, align 8
  %6 = alloca ptr, align 8
  %7 = alloca ptr, align 8
  %8 = alloca ptr, align 8
  %9 = alloca i32, align 4
  store ptr %0, ptr %4, align 8, !tbaa !29
  store ptr %1, ptr %5, align 8, !tbaa !3
  call void @llvm.lifetime.start.p0(i64 8, ptr %6) #6
  call void @llvm.lifetime.start.p0(i64 8, ptr %7) #6
  store ptr null, ptr %7, align 8, !tbaa !58
  call void @llvm.lifetime.start.p0(i64 8, ptr %8) #6
  store ptr null, ptr %8, align 8, !tbaa !28
  %10 = load ptr, ptr %4, align 8, !tbaa !29
  %11 = icmp eq ptr %10, null
  br i1 %11, label %12, label %13

12:                                               ; preds = %2
  call void @ERR_new()
  call void @ERR_set_debug(ptr noundef @.str, i32 noundef 349, ptr noundef @__func__.EVP_RAND_CTX_new)
  call void (i32, i32, ptr, ...) @ERR_set_error(i32 noundef 6, i32 noundef 218, ptr noundef null)
  store ptr null, ptr %3, align 8
  store i32 1, ptr %9, align 4
  br label %82

13:                                               ; preds = %2
  %14 = call noalias ptr @CRYPTO_zalloc(i64 noundef 40, ptr noundef @.str, i32 noundef 353)
  store ptr %14, ptr %6, align 8, !tbaa !3
  %15 = load ptr, ptr %6, align 8, !tbaa !3
  %16 = icmp eq ptr %15, null
  br i1 %16, label %17, label %18

17:                                               ; preds = %13
  store ptr null, ptr %3, align 8
  store i32 1, ptr %9, align 4
  br label %82

18:                                               ; preds = %13
  %19 = load ptr, ptr %6, align 8, !tbaa !3
  %20 = getelementptr inbounds nuw %struct.evp_rand_ctx_st, ptr %19, i32 0, i32 3
  %21 = call i32 @CRYPTO_NEW_REF(ptr noundef %20, i32 noundef 1)
  %22 = icmp ne i32 %21, 0
  br i1 %22, label %25, label %23

23:                                               ; preds = %18
  %24 = load ptr, ptr %6, align 8, !tbaa !3
  call void @CRYPTO_free(ptr noundef %24, ptr noundef @.str, i32 noundef 357)
  store ptr null, ptr %3, align 8
  store i32 1, ptr %9, align 4
  br label %82

25:                                               ; preds = %18
  %26 = load ptr, ptr %5, align 8, !tbaa !3
  %27 = icmp ne ptr %26, null
  br i1 %27, label %28, label %45

28:                                               ; preds = %25
  %29 = load ptr, ptr %5, align 8, !tbaa !3
  %30 = call i32 @EVP_RAND_CTX_up_ref(ptr noundef %29)
  %31 = icmp ne i32 %30, 0
  br i1 %31, label %36, label %32

32:                                               ; preds = %28
  call void @ERR_new()
  call void @ERR_set_debug(ptr noundef @.str, i32 noundef 362, ptr noundef @__func__.EVP_RAND_CTX_new)
  call void (i32, i32, ptr, ...) @ERR_set_error(i32 noundef 6, i32 noundef 786691, ptr noundef null)
  %33 = load ptr, ptr %6, align 8, !tbaa !3
  %34 = getelementptr inbounds nuw %struct.evp_rand_ctx_st, ptr %33, i32 0, i32 3
  call void @CRYPTO_FREE_REF(ptr noundef %34)
  %35 = load ptr, ptr %6, align 8, !tbaa !3
  call void @CRYPTO_free(ptr noundef %35, ptr noundef @.str, i32 noundef 364)
  store ptr null, ptr %3, align 8
  store i32 1, ptr %9, align 4
  br label %82

36:                                               ; preds = %28
  %37 = load ptr, ptr %5, align 8, !tbaa !3
  %38 = getelementptr inbounds nuw %struct.evp_rand_ctx_st, ptr %37, i32 0, i32 1
  %39 = load ptr, ptr %38, align 8, !tbaa !18
  store ptr %39, ptr %7, align 8, !tbaa !58
  %40 = load ptr, ptr %5, align 8, !tbaa !3
  %41 = getelementptr inbounds nuw %struct.evp_rand_ctx_st, ptr %40, i32 0, i32 0
  %42 = load ptr, ptr %41, align 8, !tbaa !8
  %43 = getelementptr inbounds nuw %struct.evp_rand_st, ptr %42, i32 0, i32 5
  %44 = load ptr, ptr %43, align 8, !tbaa !34
  store ptr %44, ptr %8, align 8, !tbaa !28
  br label %45

45:                                               ; preds = %36, %25
  %46 = load ptr, ptr %4, align 8, !tbaa !29
  %47 = getelementptr inbounds nuw %struct.evp_rand_st, ptr %46, i32 0, i32 6
  %48 = load ptr, ptr %47, align 8, !tbaa !37
  %49 = load ptr, ptr %4, align 8, !tbaa !29
  %50 = getelementptr inbounds nuw %struct.evp_rand_st, ptr %49, i32 0, i32 0
  %51 = load ptr, ptr %50, align 8, !tbaa !57
  %52 = call ptr @ossl_provider_ctx(ptr noundef %51)
  %53 = load ptr, ptr %7, align 8, !tbaa !58
  %54 = load ptr, ptr %8, align 8, !tbaa !28
  %55 = call ptr %48(ptr noundef %52, ptr noundef %53, ptr noundef %54)
  %56 = load ptr, ptr %6, align 8, !tbaa !3
  %57 = getelementptr inbounds nuw %struct.evp_rand_ctx_st, ptr %56, i32 0, i32 1
  store ptr %55, ptr %57, align 8, !tbaa !18
  %58 = icmp eq ptr %55, null
  br i1 %58, label %63, label %59

59:                                               ; preds = %45
  %60 = load ptr, ptr %4, align 8, !tbaa !29
  %61 = call i32 @EVP_RAND_up_ref(ptr noundef %60)
  %62 = icmp ne i32 %61, 0
  br i1 %62, label %74, label %63

63:                                               ; preds = %59, %45
  call void @ERR_new()
  call void @ERR_set_debug(ptr noundef @.str, i32 noundef 373, ptr noundef @__func__.EVP_RAND_CTX_new)
  call void (i32, i32, ptr, ...) @ERR_set_error(i32 noundef 6, i32 noundef 524294, ptr noundef null)
  %64 = load ptr, ptr %4, align 8, !tbaa !29
  %65 = getelementptr inbounds nuw %struct.evp_rand_st, ptr %64, i32 0, i32 7
  %66 = load ptr, ptr %65, align 8, !tbaa !38
  %67 = load ptr, ptr %6, align 8, !tbaa !3
  %68 = getelementptr inbounds nuw %struct.evp_rand_ctx_st, ptr %67, i32 0, i32 1
  %69 = load ptr, ptr %68, align 8, !tbaa !18
  call void %66(ptr noundef %69)
  %70 = load ptr, ptr %6, align 8, !tbaa !3
  %71 = getelementptr inbounds nuw %struct.evp_rand_ctx_st, ptr %70, i32 0, i32 3
  call void @CRYPTO_FREE_REF(ptr noundef %71)
  %72 = load ptr, ptr %6, align 8, !tbaa !3
  call void @CRYPTO_free(ptr noundef %72, ptr noundef @.str, i32 noundef 376)
  %73 = load ptr, ptr %5, align 8, !tbaa !3
  call void @EVP_RAND_CTX_free(ptr noundef %73)
  store ptr null, ptr %3, align 8
  store i32 1, ptr %9, align 4
  br label %82

74:                                               ; preds = %59
  %75 = load ptr, ptr %4, align 8, !tbaa !29
  %76 = load ptr, ptr %6, align 8, !tbaa !3
  %77 = getelementptr inbounds nuw %struct.evp_rand_ctx_st, ptr %76, i32 0, i32 0
  store ptr %75, ptr %77, align 8, !tbaa !8
  %78 = load ptr, ptr %5, align 8, !tbaa !3
  %79 = load ptr, ptr %6, align 8, !tbaa !3
  %80 = getelementptr inbounds nuw %struct.evp_rand_ctx_st, ptr %79, i32 0, i32 2
  store ptr %78, ptr %80, align 8, !tbaa !63
  %81 = load ptr, ptr %6, align 8, !tbaa !3
  store ptr %81, ptr %3, align 8
  store i32 1, ptr %9, align 4
  br label %82

82:                                               ; preds = %74, %63, %32, %23, %17, %12
  call void @llvm.lifetime.end.p0(i64 8, ptr %8) #6
  call void @llvm.lifetime.end.p0(i64 8, ptr %7) #6
  call void @llvm.lifetime.end.p0(i64 8, ptr %6) #6
  %83 = load ptr, ptr %3, align 8
  ret ptr %83
}