; Function Attrs: nounwind uwtable
define ptr @EVP_RAND_CTX_new(ptr noundef %0, ptr noundef %1) local_unnamed_addr #0 {
  %3 = icmp eq ptr %0, null
  br i1 %3, label %4, label %5

4:                                                ; preds = %2
  tail call void @ERR_new() #8
  tail call void @ERR_set_debug(ptr noundef nonnull @.str, i32 noundef 349, ptr noundef nonnull @__func__.EVP_RAND_CTX_new) #8
  tail call void (i32, i32, ptr, ...) @ERR_set_error(i32 noundef 6, i32 noundef 218, ptr noundef null) #8
  br label %32

5:                                                ; preds = %2
  %6 = tail call noalias ptr @CRYPTO_zalloc(i64 noundef 40, ptr noundef nonnull @.str, i32 noundef 353) #8
  %7 = icmp eq ptr %6, null
  br i1 %7, label %32, label %8

8:                                                ; preds = %5
  %9 = getelementptr inbounds nuw i8, ptr %6, i64 24
  store atomic i32 1, ptr %9 seq_cst, align 4, !tbaa !20
  %.not = icmp eq ptr %1, null
  br i1 %.not, label %18, label %10

10:                                               ; preds = %8
  %11 = getelementptr inbounds nuw i8, ptr %1, i64 24
  %12 = atomicrmw add ptr %11, i32 1 monotonic, align 4
  %13 = getelementptr inbounds nuw i8, ptr %1, i64 8
  %14 = load ptr, ptr %13, align 8, !tbaa !17
  %15 = load ptr, ptr %1, align 8, !tbaa !3
  %16 = getelementptr inbounds nuw i8, ptr %15, i64 40
  %17 = load ptr, ptr %16, align 8, !tbaa !26
  br label %18

18:                                               ; preds = %10, %8
  %.027 = phi ptr [ %14, %10 ], [ null, %8 ]
  %.0 = phi ptr [ %17, %10 ], [ null, %8 ]
  %19 = getelementptr inbounds nuw i8, ptr %0, i64 48
  %20 = load ptr, ptr %19, align 8, !tbaa !29
  %21 = load ptr, ptr %0, align 8, !tbaa !23
  %22 = tail call ptr @ossl_provider_ctx(ptr noundef %21) #8
  %23 = tail call ptr %20(ptr noundef %22, ptr noundef %.027, ptr noundef %.0) #8
  %24 = getelementptr inbounds nuw i8, ptr %6, i64 8
  store ptr %23, ptr %24, align 8, !tbaa !17
  %25 = icmp eq ptr %23, null
  br i1 %25, label %29, label %EVP_RAND_up_ref.exit

EVP_RAND_up_ref.exit:                             ; preds = %18
  %26 = getelementptr inbounds nuw i8, ptr %0, i64 32
  %27 = atomicrmw add ptr %26, i32 1 monotonic, align 4
  store ptr %0, ptr %6, align 8, !tbaa !3
  %28 = getelementptr inbounds nuw i8, ptr %6, i64 16
  store ptr %1, ptr %28, align 8, !tbaa !50
  br label %32

29:                                               ; preds = %18
  tail call void @ERR_new() #8
  tail call void @ERR_set_debug(ptr noundef nonnull @.str, i32 noundef 373, ptr noundef nonnull @__func__.EVP_RAND_CTX_new) #8
  tail call void (i32, i32, ptr, ...) @ERR_set_error(i32 noundef 6, i32 noundef 524294, ptr noundef null) #8
  %30 = getelementptr inbounds nuw i8, ptr %0, i64 56
  %31 = load ptr, ptr %30, align 8, !tbaa !31
  tail call void %31(ptr noundef null) #8
  tail call void @CRYPTO_free(ptr noundef nonnull %6, ptr noundef nonnull @.str, i32 noundef 376) #8
  tail call void @EVP_RAND_CTX_free(ptr noundef %1)
  br label %32

32:                                               ; preds = %5, %EVP_RAND_up_ref.exit, %29, %4
  %.028 = phi ptr [ null, %4 ], [ null, %29 ], [ %6, %EVP_RAND_up_ref.exit ], [ null, %5 ]
  ret ptr %.028
}